; Function Attrs: mustprogress nounwind uwtable
define void @_ZN7testing8internal12UnitTestImpl25set_os_stack_trace_getterEPNS0_27OsStackTraceGetterInterfaceE(ptr noundef nonnull align 8 captures(none) dereferenceable(601) %0, ptr noundef %1) local_unnamed_addr #10 align 2 {
  %3 = getelementptr inbounds nuw i8, ptr %0, i64 528
  %4 = load ptr, ptr %3, align 8, !tbaa !673
  %.not = icmp eq ptr %4, %1
  br i1 %.not, label %12, label %5

5:                                                ; preds = %2
  %6 = icmp eq ptr %4, null
  br i1 %6, label %11, label %7

7:                                                ; preds = %5
  %8 = load ptr, ptr %4, align 8, !tbaa !32
  %9 = getelementptr inbounds nuw i8, ptr %8, i64 8
  %10 = load ptr, ptr %9, align 8
  tail call void %10(ptr noundef nonnull align 8 dereferenceable(8) %4) #57
  br label %11

11:                                               ; preds = %7, %5
  store ptr %1, ptr %3, align 8, !tbaa !673
  br label %12

12:                                               ; preds = %11, %2
  ret void
}